target datalayout = "e-m:e-p270:32:32-p271:32:32-p272:64:64-i64:64-i128:128-f80:128-n8:16:32:64-S128"
target triple = "x86_64-unknown-linux-gnu"

%"class.duckdb::unique_ptr" = type { %"class.std::unique_ptr" }
%"class.std::unique_ptr" = type { %"struct.std::__uniq_ptr_data" }
%"struct.std::__uniq_ptr_data" = type { %"class.std::__uniq_ptr_impl" }
%"class.std::__uniq_ptr_impl" = type { %"class.std::tuple" }
%"class.std::tuple" = type { %"struct.std::_Tuple_impl" }
%"struct.std::_Tuple_impl" = type { %"struct.std::_Head_base.1" }
%"struct.std::_Head_base.1" = type { ptr }
%"class.duckdb::unique_ptr.1286" = type { %"class.std::unique_ptr.1287" }
%"class.std::unique_ptr.1287" = type { %"struct.std::__uniq_ptr_data.1288" }
%"struct.std::__uniq_ptr_data.1288" = type { %"class.std::__uniq_ptr_impl.1289" }
%"class.std::__uniq_ptr_impl.1289" = type { %"class.std::tuple.1290" }
%"class.std::tuple.1290" = type { %"struct.std::_Tuple_impl.1291" }
%"struct.std::_Tuple_impl.1291" = type { %"struct.std::_Head_base.1294" }
%"struct.std::_Head_base.1294" = type { ptr }

; Function Attrs: mustprogress uwtable
define void @_ZN6duckdb21PhysicalPlanGenerator10CreatePlanERNS_14LogicalPrepareE(ptr dead_on_unwind noalias nocapture writable writeonly sret(%"class.duckdb::unique_ptr") align 8 %agg.result, ptr noundef nonnull align 8 dereferenceable(176) %this, ptr noundef nonnull align 8 dereferenceable(152) %op) local_unnamed_addr #0 align 2 personality ptr @__gxx_personality_v0 {
entry:
  %plan = alloca %"class.duckdb::unique_ptr", align 8
  %ref.tmp = alloca %"class.duckdb::unique_ptr.1286", align 8
  %children = getelementptr inbounds i8, ptr %op, i64 16
  %0 = load ptr, ptr %children, align 8, !tbaa !8
  %_M_finish.i.i = getelementptr inbounds i8, ptr %op, i64 24
  %1 = load ptr, ptr %_M_finish.i.i, align 8, !tbaa !8
  %cmp.i.i = icmp eq ptr %0, %1
  br i1 %cmp.i.i, label %_ZNSt10unique_ptrIN6duckdb15PhysicalPrepareESt14default_deleteIS1_EED2Ev.exit, label %if.then

if.then:                                          ; preds = %entry
  call void @llvm.lifetime.start.p0(i64 8, ptr nonnull %plan) #20
  %call3 = tail call noundef nonnull align 8 dereferenceable(8) ptr @_ZN6duckdb6vectorINS_10unique_ptrINS_15LogicalOperatorESt14default_deleteIS2_ELb1EEELb1EEixEm(ptr noundef nonnull align 8 dereferenceable(24) %children, i64 noundef 0)
  %call4 = tail call noundef nonnull align 8 dereferenceable(97) ptr @_ZNK6duckdb10unique_ptrINS_15LogicalOperatorESt14default_deleteIS1_ELb1EEdeEv(ptr noundef nonnull align 8 dereferenceable(8) %call3)
  call void @_ZN6duckdb21PhysicalPlanGenerator10CreatePlanERNS_15LogicalOperatorE(ptr dead_on_unwind nonnull writable sret(%"class.duckdb::unique_ptr") align 8 %plan, ptr noundef nonnull align 8 dereferenceable(176) %this, ptr noundef nonnull align 8 dereferenceable(97) %call4)
  %call5 = invoke noundef ptr @_ZNK6duckdb10unique_ptrINS_16PhysicalOperatorESt14default_deleteIS1_ELb1EEptEv(ptr noundef nonnull align 8 dereferenceable(8) %plan)
          to label %invoke.cont unwind label %lpad

invoke.cont:                                      ; preds = %if.then
  %types = getelementptr inbounds i8, ptr %call5, i64 40
  %prepared = getelementptr inbounds i8, ptr %op, i64 136
  %2 = load ptr, ptr %prepared, align 8, !tbaa !913
  %types7 = getelementptr inbounds i8, ptr %2, i64 48
  %call.i22 = invoke noundef nonnull align 8 dereferenceable(24) ptr @_ZNSt6vectorIN6duckdb11LogicalTypeESaIS1_EEaSERKS3_(ptr noundef nonnull align 8 dereferenceable(24) %types7, ptr noundef nonnull align 8 dereferenceable(24) %types)
          to label %invoke.cont8 unwind label %lpad

invoke.cont8:                                     ; preds = %invoke.cont
  %3 = load ptr, ptr %prepared, align 8, !tbaa !913
  %plan12 = getelementptr inbounds i8, ptr %3, i64 16
  %4 = load ptr, ptr %plan, align 8, !tbaa !8
  store ptr null, ptr %plan, align 8, !tbaa !8
  %5 = load ptr, ptr %plan12, align 8, !tbaa !8
  store ptr %4, ptr %plan12, align 8, !tbaa !8
  %tobool.not.i.i.i.i.i = icmp eq ptr %5, null
  br i1 %tobool.not.i.i.i.i.i, label %_ZNSt10unique_ptrIN6duckdb16PhysicalOperatorESt14default_deleteIS1_EED2Ev.exit, label %_ZN6duckdb10unique_ptrINS_16PhysicalOperatorESt14default_deleteIS1_ELb1EEaSEOS4_.exit

_ZN6duckdb10unique_ptrINS_16PhysicalOperatorESt14default_deleteIS1_ELb1EEaSEOS4_.exit: ; preds = %invoke.cont8
  %vtable.i.i.i.i.i.i = load ptr, ptr %5, align 8, !tbaa !9
  %vfn.i.i.i.i.i.i = getelementptr inbounds i8, ptr %vtable.i.i.i.i.i.i, i64 8
  %6 = load ptr, ptr %vfn.i.i.i.i.i.i, align 8
  call void %6(ptr noundef nonnull align 8 dereferenceable(128) %5) #20
  %.pr = load ptr, ptr %plan, align 8, !tbaa !8
  %cmp.not.i = icmp eq ptr %.pr, null
  br i1 %cmp.not.i, label %_ZNSt10unique_ptrIN6duckdb16PhysicalOperatorESt14default_deleteIS1_EED2Ev.exit, label %_ZNKSt14default_deleteIN6duckdb16PhysicalOperatorEEclEPS1_.exit.i

_ZNKSt14default_deleteIN6duckdb16PhysicalOperatorEEclEPS1_.exit.i: ; preds = %_ZN6duckdb10unique_ptrINS_16PhysicalOperatorESt14default_deleteIS1_ELb1EEaSEOS4_.exit
  %vtable.i.i = load ptr, ptr %.pr, align 8, !tbaa !9
  %vfn.i.i = getelementptr inbounds i8, ptr %vtable.i.i, i64 8
  %7 = load ptr, ptr %vfn.i.i, align 8
  call void %7(ptr noundef nonnull align 8 dereferenceable(128) %.pr) #20
  br label %_ZNSt10unique_ptrIN6duckdb16PhysicalOperatorESt14default_deleteIS1_EED2Ev.exit

_ZNSt10unique_ptrIN6duckdb16PhysicalOperatorESt14default_deleteIS1_EED2Ev.exit: ; preds = %_ZNKSt14default_deleteIN6duckdb16PhysicalOperatorEEclEPS1_.exit.i, %_ZN6duckdb10unique_ptrINS_16PhysicalOperatorESt14default_deleteIS1_ELb1EEaSEOS4_.exit, %invoke.cont8
  call void @llvm.lifetime.end.p0(i64 8, ptr nonnull %plan) #20
  br label %_ZNSt10unique_ptrIN6duckdb15PhysicalPrepareESt14default_deleteIS1_EED2Ev.exit

lpad:                                             ; preds = %invoke.cont, %if.then
  %8 = landingpad { ptr, i32 }
          cleanup
  %9 = load ptr, ptr %plan, align 8, !tbaa !8
  %cmp.not.i23 = icmp eq ptr %9, null
  br i1 %cmp.not.i23, label %_ZNSt10unique_ptrIN6duckdb16PhysicalOperatorESt14default_deleteIS1_EED2Ev.exit27, label %_ZNKSt14default_deleteIN6duckdb16PhysicalOperatorEEclEPS1_.exit.i24

_ZNKSt14default_deleteIN6duckdb16PhysicalOperatorEEclEPS1_.exit.i24: ; preds = %lpad
  %vtable.i.i25 = load ptr, ptr %9, align 8, !tbaa !9
  %vfn.i.i26 = getelementptr inbounds i8, ptr %vtable.i.i25, i64 8
  %10 = load ptr, ptr %vfn.i.i26, align 8
  call void %10(ptr noundef nonnull align 8 dereferenceable(128) %9) #20
  br label %_ZNSt10unique_ptrIN6duckdb16PhysicalOperatorESt14default_deleteIS1_EED2Ev.exit27

_ZNSt10unique_ptrIN6duckdb16PhysicalOperatorESt14default_deleteIS1_EED2Ev.exit27: ; preds = %_ZNKSt14default_deleteIN6duckdb16PhysicalOperatorEEclEPS1_.exit.i24, %lpad
  call void @llvm.lifetime.end.p0(i64 8, ptr nonnull %plan) #20
  resume { ptr, i32 } %8

_ZNSt10unique_ptrIN6duckdb15PhysicalPrepareESt14default_deleteIS1_EED2Ev.exit: ; preds = %_ZNSt10unique_ptrIN6duckdb16PhysicalOperatorESt14default_deleteIS1_EED2Ev.exit, %entry
  call void @llvm.lifetime.start.p0(i64 8, ptr nonnull %ref.tmp) #20
  %name = getelementptr inbounds i8, ptr %op, i64 104
  %prepared14 = getelementptr inbounds i8, ptr %op, i64 136
  %estimated_cardinality = getelementptr inbounds i8, ptr %op, i64 88
  call void @_ZN6duckdb9make_uniqINS_15PhysicalPrepareEJRNSt7__cxx1112basic_stringIcSt11char_traitsIcESaIcEEESt10shared_ptrINS_21PreparedStatementDataEERmEEENS_11__unique_ifIT_Lb1EE15__unique_singleEDpOT0_(ptr dead_on_unwind nonnull writable sret(%"class.duckdb::unique_ptr.1286") align 8 %ref.tmp, ptr noundef nonnull align 8 dereferenceable(32) %name, ptr noundef nonnull align 8 dereferenceable(16) %prepared14, ptr noundef nonnull align 8 dereferenceable(8) %estimated_cardinality)
  %11 = load ptr, ptr %ref.tmp, align 8, !tbaa !8
  store ptr %11, ptr %agg.result, align 8, !tbaa !3
  call void @llvm.lifetime.end.p0(i64 8, ptr nonnull %ref.tmp) #20
  ret void
}